target datalayout = "e-m:e-p270:32:32-p271:32:32-p272:64:64-i64:64-i128:128-f80:128-n8:16:32:64-S128"
target triple = "x86_64-pc-linux-gnu"

%union.VALUETYPE = type { [2 x i64], [112 x i8] }
%struct.magic = type { i16, i8, i8, i8, i8, i8, i8, i8, i8, i8, i8, i32, i32, i32, %union.anon, %union.VALUETYPE, [64 x i8], [80 x i8], [8 x i8], [64 x i8] }
%union.anon = type { i64 }

; Function Attrs: nounwind uwtable
define internal i32 @cvt_16(ptr noundef %0, ptr noundef %1) #0 {
  %3 = alloca i32, align 4
  %4 = alloca ptr, align 8
  %5 = alloca ptr, align 8
  store ptr %0, ptr %4, align 8
  store ptr %1, ptr %5, align 8
  %6 = load ptr, ptr %5, align 8
  %7 = getelementptr inbounds %struct.magic, ptr %6, i32 0, i32 14
  %8 = load i64, ptr %7, align 8
  %9 = icmp ne i64 %8, 0
  br i1 %9, label %10, label %121

10:                                               ; preds = %2
  %11 = load ptr, ptr %5, align 8
  %12 = getelementptr inbounds %struct.magic, ptr %11, i32 0, i32 8
  %13 = load i8, ptr %12, align 1
  %14 = zext i8 %13 to i32
  %15 = and i32 %14, 7
  switch i32 %15, label %120 [
    i32 0, label %16
    i32 1, label %27
    i32 2, label %38
    i32 3, label %49
    i32 4, label %60
    i32 5, label %71
    i32 6, label %82
    i32 7, label %101
  ]

16:                                               ; preds = %10
  %17 = load ptr, ptr %5, align 8
  %18 = getelementptr inbounds %struct.magic, ptr %17, i32 0, i32 14
  %19 = load i64, ptr %18, align 8
  %20 = trunc i64 %19 to i16
  %21 = zext i16 %20 to i32
  %22 = load ptr, ptr %4, align 8
  %23 = load i16, ptr %22, align 8
  %24 = zext i16 %23 to i32
  %25 = and i32 %24, %21
  %26 = trunc i32 %25 to i16
  store i16 %26, ptr %22, align 8
  br label %120

27:                                               ; preds = %10
  %28 = load ptr, ptr %5, align 8
  %29 = getelementptr inbounds %struct.magic, ptr %28, i32 0, i32 14
  %30 = load i64, ptr %29, align 8
  %31 = trunc i64 %30 to i16
  %32 = zext i16 %31 to i32
  %33 = load ptr, ptr %4, align 8
  %34 = load i16, ptr %33, align 8
  %35 = zext i16 %34 to i32
  %36 = or i32 %35, %32
  %37 = trunc i32 %36 to i16
  store i16 %37, ptr %33, align 8
  br label %120

38:                                               ; preds = %10
  %39 = load ptr, ptr %5, align 8
  %40 = getelementptr inbounds %struct.magic, ptr %39, i32 0, i32 14
  %41 = load i64, ptr %40, align 8
  %42 = trunc i64 %41 to i16
  %43 = zext i16 %42 to i32
  %44 = load ptr, ptr %4, align 8
  %45 = load i16, ptr %44, align 8
  %46 = zext i16 %45 to i32
  %47 = xor i32 %46, %43
  %48 = trunc i32 %47 to i16
  store i16 %48, ptr %44, align 8
  br label %120

49:                                               ; preds = %10
  %50 = load ptr, ptr %5, align 8
  %51 = getelementptr inbounds %struct.magic, ptr %50, i32 0, i32 14
  %52 = load i64, ptr %51, align 8
  %53 = trunc i64 %52 to i16
  %54 = zext i16 %53 to i32
  %55 = load ptr, ptr %4, align 8
  %56 = load i16, ptr %55, align 8
  %57 = zext i16 %56 to i32
  %58 = add nsw i32 %57, %54
  %59 = trunc i32 %58 to i16
  store i16 %59, ptr %55, align 8
  br label %120

60:                                               ; preds = %10
  %61 = load ptr, ptr %5, align 8
  %62 = getelementptr inbounds %struct.magic, ptr %61, i32 0, i32 14
  %63 = load i64, ptr %62, align 8
  %64 = trunc i64 %63 to i16
  %65 = zext i16 %64 to i32
  %66 = load ptr, ptr %4, align 8
  %67 = load i16, ptr %66, align 8
  %68 = zext i16 %67 to i32
  %69 = sub nsw i32 %68, %65
  %70 = trunc i32 %69 to i16
  store i16 %70, ptr %66, align 8
  br label %120

71:                                               ; preds = %10
  %72 = load ptr, ptr %5, align 8
  %73 = getelementptr inbounds %struct.magic, ptr %72, i32 0, i32 14
  %74 = load i64, ptr %73, align 8
  %75 = trunc i64 %74 to i16
  %76 = zext i16 %75 to i32
  %77 = load ptr, ptr %4, align 8
  %78 = load i16, ptr %77, align 8
  %79 = zext i16 %78 to i32
  %80 = mul nsw i32 %79, %76
  %81 = trunc i32 %80 to i16
  store i16 %81, ptr %77, align 8
  br label %120

82:                                               ; preds = %10
  %83 = load ptr, ptr %5, align 8
  %84 = getelementptr inbounds %struct.magic, ptr %83, i32 0, i32 14
  %85 = load i64, ptr %84, align 8
  %86 = trunc i64 %85 to i16
  %87 = zext i16 %86 to i32
  %88 = icmp eq i32 %87, 0
  br i1 %88, label %89, label %90

89:                                               ; preds = %82
  store i32 -1, ptr %3, align 4
  br label %136

90:                                               ; preds = %82
  %91 = load ptr, ptr %5, align 8
  %92 = getelementptr inbounds %struct.magic, ptr %91, i32 0, i32 14
  %93 = load i64, ptr %92, align 8
  %94 = trunc i64 %93 to i16
  %95 = zext i16 %94 to i32
  %96 = load ptr, ptr %4, align 8
  %97 = load i16, ptr %96, align 8
  %98 = zext i16 %97 to i32
  %99 = sdiv i32 %98, %95
  %100 = trunc i32 %99 to i16
  store i16 %100, ptr %96, align 8
  br label %120

101:                                              ; preds = %10
  %102 = load ptr, ptr %5, align 8
  %103 = getelementptr inbounds %struct.magic, ptr %102, i32 0, i32 14
  %104 = load i64, ptr %103, align 8
  %105 = trunc i64 %104 to i16
  %106 = zext i16 %105 to i32
  %107 = icmp eq i32 %106, 0
  br i1 %107, label %108, label %109

108:                                              ; preds = %101
  store i32 -1, ptr %3, align 4
  br label %136

109:                                              ; preds = %101
  %110 = load ptr, ptr %5, align 8
  %111 = getelementptr inbounds %struct.magic, ptr %110, i32 0, i32 14
  %112 = load i64, ptr %111, align 8
  %113 = trunc i64 %112 to i16
  %114 = zext i16 %113 to i32
  %115 = load ptr, ptr %4, align 8
  %116 = load i16, ptr %115, align 8
  %117 = zext i16 %116 to i32
  %118 = srem i32 %117, %114
  %119 = trunc i32 %118 to i16
  store i16 %119, ptr %115, align 8
  br label %120

120:                                              ; preds = %109, %90, %71, %60, %49, %38, %27, %16, %10
  br label %121

121:                                              ; preds = %120, %2
  %122 = load ptr, ptr %5, align 8
  %123 = getelementptr inbounds %struct.magic, ptr %122, i32 0, i32 8
  %124 = load i8, ptr %123, align 1
  %125 = zext i8 %124 to i32
  %126 = and i32 %125, 64
  %127 = icmp ne i32 %126, 0
  br i1 %127, label %128, label %135

128:                                              ; preds = %121
  %129 = load ptr, ptr %4, align 8
  %130 = load i16, ptr %129, align 8
  %131 = zext i16 %130 to i32
  %132 = xor i32 %131, -1
  %133 = trunc i32 %132 to i16
  %134 = load ptr, ptr %4, align 8
  store i16 %133, ptr %134, align 8
  br label %135

135:                                              ; preds = %128, %121
  store i32 0, ptr %3, align 4
  br label %136

136:                                              ; preds = %135, %108, %89
  %137 = load i32, ptr %3, align 4
  ret i32 %137
}