; Function Attrs: mustprogress nofree norecurse nosync nounwind willreturn memory(argmem: readwrite) uwtable
define internal fastcc noundef i32 @cvt_16(ptr nocapture noundef %0, ptr nocapture noundef readonly %1) unnamed_addr #11 {
  %3 = getelementptr inbounds i8, ptr %1, i64 24
  %4 = load i64, ptr %3, align 8
  %.not = icmp eq i64 %4, 0
  br i1 %.not, label %45, label %5

5:                                                ; preds = %2
  %6 = getelementptr inbounds i8, ptr %1, i64 9
  %7 = load i8, ptr %6, align 1
  %8 = and i8 %7, 7
  switch i8 %8, label %default.unreachable30 [
    i8 0, label %9
    i8 1, label %13
    i8 2, label %17
    i8 3, label %21
    i8 4, label %25
    i8 5, label %29
    i8 6, label %33
    i8 7, label %39
  ]

9:                                                ; preds = %5
  %10 = trunc i64 %4 to i16
  %11 = load i16, ptr %0, align 8
  %12 = and i16 %11, %10
  br label %.sink.split

13:                                               ; preds = %5
  %14 = trunc i64 %4 to i16
  %15 = load i16, ptr %0, align 8
  %16 = or i16 %15, %14
  br label %.sink.split

17:                                               ; preds = %5
  %18 = trunc i64 %4 to i16
  %19 = load i16, ptr %0, align 8
  %20 = xor i16 %19, %18
  br label %.sink.split

21:                                               ; preds = %5
  %22 = trunc i64 %4 to i16
  %23 = load i16, ptr %0, align 8
  %24 = add i16 %23, %22
  br label %.sink.split

25:                                               ; preds = %5
  %26 = trunc i64 %4 to i16
  %27 = load i16, ptr %0, align 8
  %28 = sub i16 %27, %26
  br label %.sink.split

29:                                               ; preds = %5
  %30 = trunc i64 %4 to i16
  %31 = load i16, ptr %0, align 8
  %32 = mul i16 %31, %30
  br label %.sink.split

33:                                               ; preds = %5
  %34 = and i64 %4, 65535
  %35 = icmp eq i64 %34, 0
  br i1 %35, label %52, label %36

36:                                               ; preds = %33
  %37 = load i16, ptr %0, align 8
  %.rhs.trunc = trunc i64 %4 to i16
  %38 = udiv i16 %37, %.rhs.trunc
  br label %.sink.split

39:                                               ; preds = %5
  %40 = and i64 %4, 65535
  %41 = icmp eq i64 %40, 0
  br i1 %41, label %52, label %42

42:                                               ; preds = %39
  %43 = load i16, ptr %0, align 8
  %.rhs.trunc28 = trunc i64 %4 to i16
  %44 = urem i16 %43, %.rhs.trunc28
  br label %.sink.split

default.unreachable30:                            ; preds = %5
  unreachable

.sink.split:                                      ; preds = %42, %36, %29, %25, %21, %17, %13, %9
  %.sink = phi i16 [ %12, %9 ], [ %16, %13 ], [ %20, %17 ], [ %24, %21 ], [ %28, %25 ], [ %32, %29 ], [ %38, %36 ], [ %44, %42 ]
  store i16 %.sink, ptr %0, align 8
  br label %45

45:                                               ; preds = %.sink.split, %2
  %46 = getelementptr inbounds i8, ptr %1, i64 9
  %47 = load i8, ptr %46, align 1
  %48 = and i8 %47, 64
  %.not26 = icmp eq i8 %48, 0
  br i1 %.not26, label %52, label %49

49:                                               ; preds = %45
  %50 = load i16, ptr %0, align 8
  %51 = xor i16 %50, -1
  store i16 %51, ptr %0, align 8
  br label %52

52:                                               ; preds = %45, %49, %39, %33
  %.0 = phi i32 [ -1, %33 ], [ -1, %39 ], [ 0, %49 ], [ 0, %45 ]
  ret i32 %.0
}